target datalayout = "e-m:e-p270:32:32-p271:32:32-p272:64:64-i64:64-i128:128-f80:128-n8:16:32:64-S128"
target triple = "x86_64-pc-linux-gnu"

%struct.expert_field = type { i32, i32 }
%struct.fec_packet_data = type { i8 }

@proto_rmt_fec = internal global i32 0, align 4
@hf_fti_transfer_length = internal global i32 0, align 4
@hf_instance_id = internal global i32 0, align 4
@ei_fec_encoding_id = internal global %struct.expert_field zeroinitializer, align 4
@hf_fti_encoding_symbol_length = internal global i32 0, align 4
@hf_fti_num_blocks = internal global i32 0, align 4
@hf_fti_num_subblocks = internal global i32 0, align 4
@hf_fti_alignment = internal global i32 0, align 4
@hf_fti_max_source_block_length = internal global i32 0, align 4
@hf_fti_max_number_encoding_symbols = internal global i32 0, align 4

; Function Attrs: null_pointer_is_valid sspstrong uwtable
define hidden void @fec_decode_ext_fti(ptr noundef %0, ptr noundef %1, ptr noundef %2, i32 noundef %3, i8 noundef zeroext %4) #0 {
  %6 = alloca ptr, align 8
  %7 = alloca ptr, align 8
  %8 = alloca ptr, align 8
  %9 = alloca i32, align 4
  %10 = alloca i8, align 1
  %11 = alloca i64, align 8
  %12 = alloca ptr, align 8
  %13 = alloca i8, align 1
  %14 = alloca ptr, align 8
  store ptr %0, ptr %6, align 8
  store ptr %1, ptr %7, align 8
  store ptr %2, ptr %8, align 8
  store i32 %3, ptr %9, align 4
  store i8 %4, ptr %10, align 1
  call void @llvm.lifetime.start.p0(i64 8, ptr %11) #4
  call void @llvm.lifetime.start.p0(i64 8, ptr %12) #4
  call void @llvm.lifetime.start.p0(i64 1, ptr %13) #4
  store i8 0, ptr %13, align 1
  call void @llvm.lifetime.start.p0(i64 8, ptr %14) #4
  %15 = load i8, ptr %10, align 1
  %16 = zext i8 %15 to i32
  %17 = icmp eq i32 %16, 6
  br i1 %17, label %18, label %23

18:                                               ; preds = %5
  %19 = load ptr, ptr %6, align 8
  %20 = load i32, ptr %9, align 4
  %21 = add i32 %20, 2
  %22 = call i64 @tvb_get_ntoh40(ptr noundef %19, i32 noundef %21)
  store i64 %22, ptr %11, align 8
  br label %28

23:                                               ; preds = %5
  %24 = load ptr, ptr %6, align 8
  %25 = load i32, ptr %9, align 4
  %26 = add i32 %25, 2
  %27 = call i64 @tvb_get_ntoh48(ptr noundef %24, i32 noundef %26)
  store i64 %27, ptr %11, align 8
  br label %28

28:                                               ; preds = %23, %18
  %29 = load i8, ptr %10, align 1
  %30 = zext i8 %29 to i32
  %31 = icmp sge i32 %30, 128
  br i1 %31, label %32, label %47

32:                                               ; preds = %28
  %33 = load ptr, ptr %6, align 8
  %34 = load i32, ptr %9, align 4
  %35 = add i32 %34, 8
  %36 = call zeroext i16 @tvb_get_ntohs(ptr noundef %33, i32 noundef %35)
  %37 = trunc i16 %36 to i8
  store i8 %37, ptr %13, align 1
  %38 = call ptr @wmem_file_scope()
  %39 = call noalias ptr @wmem_alloc0(ptr noundef %38, i64 noundef 1) #5
  store ptr %39, ptr %12, align 8
  %40 = load i8, ptr %13, align 1
  %41 = load ptr, ptr %12, align 8
  %42 = getelementptr inbounds nuw %struct.fec_packet_data, ptr %41, i32 0, i32 0
  store i8 %40, ptr %42, align 1
  %43 = call ptr @wmem_file_scope()
  %44 = load ptr, ptr %7, align 8
  %45 = load i32, ptr @proto_rmt_fec, align 4
  %46 = load ptr, ptr %12, align 8
  call void @p_add_proto_data(ptr noundef %43, ptr noundef %44, i32 noundef %45, i32 noundef 0, ptr noundef %46)
  br label %47

47:                                               ; preds = %32, %28
  %48 = load i8, ptr %10, align 1
  %49 = zext i8 %48 to i32
  %50 = icmp eq i32 %49, 6
  br i1 %50, label %51, label %59

51:                                               ; preds = %47
  %52 = load ptr, ptr %8, align 8
  %53 = load i32, ptr @hf_fti_transfer_length, align 4
  %54 = load ptr, ptr %6, align 8
  %55 = load i32, ptr %9, align 4
  %56 = add i32 %55, 2
  %57 = load i64, ptr %11, align 8
  %58 = call ptr @proto_tree_add_uint64(ptr noundef %52, i32 noundef %53, ptr noundef %54, i32 noundef %56, i32 noundef 5, i64 noundef %57)
  br label %85

59:                                               ; preds = %47
  %60 = load ptr, ptr %8, align 8
  %61 = load i32, ptr @hf_fti_transfer_length, align 4
  %62 = load ptr, ptr %6, align 8
  %63 = load i32, ptr %9, align 4
  %64 = add i32 %63, 2
  %65 = load i64, ptr %11, align 8
  %66 = call ptr @proto_tree_add_uint64(ptr noundef %60, i32 noundef %61, ptr noundef %62, i32 noundef %64, i32 noundef 6, i64 noundef %65)
  %67 = load ptr, ptr %8, align 8
  %68 = load i32, ptr @hf_instance_id, align 4
  %69 = load ptr, ptr %6, align 8
  %70 = load i32, ptr %9, align 4
  %71 = add i32 %70, 8
  %72 = call ptr @proto_tree_add_item(ptr noundef %67, i32 noundef %68, ptr noundef %69, i32 noundef %71, i32 noundef 2, i32 noundef 0)
  store ptr %72, ptr %14, align 8
  %73 = load i8, ptr %10, align 1
  %74 = zext i8 %73 to i32
  %75 = icmp slt i32 %74, 128
  br i1 %75, label %76, label %84

76:                                               ; preds = %59
  %77 = load i8, ptr %10, align 1
  %78 = zext i8 %77 to i32
  %79 = icmp ne i32 %78, 0
  br i1 %79, label %80, label %84

80:                                               ; preds = %76
  %81 = load ptr, ptr %7, align 8
  %82 = load ptr, ptr %14, align 8
  %83 = call ptr @expert_add_info(ptr noundef %81, ptr noundef %82, ptr noundef @ei_fec_encoding_id)
  br label %84

84:                                               ; preds = %80, %76, %59
  br label %85

85:                                               ; preds = %84, %51
  %86 = load i8, ptr %10, align 1
  %87 = zext i8 %86 to i32
  switch i32 %87, label %189 [
    i32 1, label %88
    i32 6, label %113
    i32 0, label %138
    i32 2, label %138
    i32 128, label %138
    i32 130, label %138
    i32 129, label %151
    i32 132, label %170
  ]

88:                                               ; preds = %85
  %89 = load ptr, ptr %8, align 8
  %90 = load i32, ptr @hf_fti_encoding_symbol_length, align 4
  %91 = load ptr, ptr %6, align 8
  %92 = load i32, ptr %9, align 4
  %93 = add i32 %92, 10
  %94 = call ptr @proto_tree_add_item(ptr noundef %89, i32 noundef %90, ptr noundef %91, i32 noundef %93, i32 noundef 2, i32 noundef 0)
  %95 = load ptr, ptr %8, align 8
  %96 = load i32, ptr @hf_fti_num_blocks, align 4
  %97 = load ptr, ptr %6, align 8
  %98 = load i32, ptr %9, align 4
  %99 = add i32 %98, 12
  %100 = call ptr @proto_tree_add_item(ptr noundef %95, i32 noundef %96, ptr noundef %97, i32 noundef %99, i32 noundef 2, i32 noundef 0)
  %101 = load ptr, ptr %8, align 8
  %102 = load i32, ptr @hf_fti_num_subblocks, align 4
  %103 = load ptr, ptr %6, align 8
  %104 = load i32, ptr %9, align 4
  %105 = add i32 %104, 14
  %106 = call ptr @proto_tree_add_item(ptr noundef %101, i32 noundef %102, ptr noundef %103, i32 noundef %105, i32 noundef 1, i32 noundef 0)
  %107 = load ptr, ptr %8, align 8
  %108 = load i32, ptr @hf_fti_alignment, align 4
  %109 = load ptr, ptr %6, align 8
  %110 = load i32, ptr %9, align 4
  %111 = add i32 %110, 15
  %112 = call ptr @proto_tree_add_item(ptr noundef %107, i32 noundef %108, ptr noundef %109, i32 noundef %111, i32 noundef 1, i32 noundef 0)
  br label %189

113:                                              ; preds = %85
  %114 = load ptr, ptr %8, align 8
  %115 = load i32, ptr @hf_fti_encoding_symbol_length, align 4
  %116 = load ptr, ptr %6, align 8
  %117 = load i32, ptr %9, align 4
  %118 = add i32 %117, 8
  %119 = call ptr @proto_tree_add_item(ptr noundef %114, i32 noundef %115, ptr noundef %116, i32 noundef %118, i32 noundef 2, i32 noundef 0)
  %120 = load ptr, ptr %8, align 8
  %121 = load i32, ptr @hf_fti_num_blocks, align 4
  %122 = load ptr, ptr %6, align 8
  %123 = load i32, ptr %9, align 4
  %124 = add i32 %123, 10
  %125 = call ptr @proto_tree_add_item(ptr noundef %120, i32 noundef %121, ptr noundef %122, i32 noundef %124, i32 noundef 1, i32 noundef 0)
  %126 = load ptr, ptr %8, align 8
  %127 = load i32, ptr @hf_fti_num_subblocks, align 4
  %128 = load ptr, ptr %6, align 8
  %129 = load i32, ptr %9, align 4
  %130 = add i32 %129, 11
  %131 = call ptr @proto_tree_add_item(ptr noundef %126, i32 noundef %127, ptr noundef %128, i32 noundef %130, i32 noundef 2, i32 noundef 0)
  %132 = load ptr, ptr %8, align 8
  %133 = load i32, ptr @hf_fti_alignment, align 4
  %134 = load ptr, ptr %6, align 8
  %135 = load i32, ptr %9, align 4
  %136 = add i32 %135, 13
  %137 = call ptr @proto_tree_add_item(ptr noundef %132, i32 noundef %133, ptr noundef %134, i32 noundef %136, i32 noundef 1, i32 noundef 0)
  br label %189

138:                                              ; preds = %85, %85, %85, %85
  %139 = load ptr, ptr %8, align 8
  %140 = load i32, ptr @hf_fti_encoding_symbol_length, align 4
  %141 = load ptr, ptr %6, align 8
  %142 = load i32, ptr %9, align 4
  %143 = add i32 %142, 10
  %144 = call ptr @proto_tree_add_item(ptr noundef %139, i32 noundef %140, ptr noundef %141, i32 noundef %143, i32 noundef 2, i32 noundef 0)
  %145 = load ptr, ptr %8, align 8
  %146 = load i32, ptr @hf_fti_max_source_block_length, align 4
  %147 = load ptr, ptr %6, align 8
  %148 = load i32, ptr %9, align 4
  %149 = add i32 %148, 12
  %150 = call ptr @proto_tree_add_item(ptr noundef %145, i32 noundef %146, ptr noundef %147, i32 noundef %149, i32 noundef 4, i32 noundef 0)
  br label %189

151:                                              ; preds = %85
  %152 = load ptr, ptr %8, align 8
  %153 = load i32, ptr @hf_fti_encoding_symbol_length, align 4
  %154 = load ptr, ptr %6, align 8
  %155 = load i32, ptr %9, align 4
  %156 = add i32 %155, 10
  %157 = call ptr @proto_tree_add_item(ptr noundef %152, i32 noundef %153, ptr noundef %154, i32 noundef %156, i32 noundef 2, i32 noundef 0)
  %158 = load ptr, ptr %8, align 8
  %159 = load i32, ptr @hf_fti_max_source_block_length, align 4
  %160 = load ptr, ptr %6, align 8
  %161 = load i32, ptr %9, align 4
  %162 = add i32 %161, 12
  %163 = call ptr @proto_tree_add_item(ptr noundef %158, i32 noundef %159, ptr noundef %160, i32 noundef %162, i32 noundef 2, i32 noundef 0)
  %164 = load ptr, ptr %8, align 8
  %165 = load i32, ptr @hf_fti_max_number_encoding_symbols, align 4
  %166 = load ptr, ptr %6, align 8
  %167 = load i32, ptr %9, align 4
  %168 = add i32 %167, 14
  %169 = call ptr @proto_tree_add_item(ptr noundef %164, i32 noundef %165, ptr noundef %166, i32 noundef %168, i32 noundef 2, i32 noundef 0)
  br label %189

170:                                              ; preds = %85
  %171 = load ptr, ptr %8, align 8
  %172 = load i32, ptr @hf_fti_encoding_symbol_length, align 4
  %173 = load ptr, ptr %6, align 8
  %174 = load i32, ptr %9, align 4
  %175 = add i32 %174, 10
  %176 = call ptr @proto_tree_add_item(ptr noundef %171, i32 noundef %172, ptr noundef %173, i32 noundef %175, i32 noundef 2, i32 noundef 0)
  %177 = load ptr, ptr %8, align 8
  %178 = load i32, ptr @hf_fti_max_source_block_length, align 4
  %179 = load ptr, ptr %6, align 8
  %180 = load i32, ptr %9, align 4
  %181 = add i32 %180, 12
  %182 = call ptr @proto_tree_add_item(ptr noundef %177, i32 noundef %178, ptr noundef %179, i32 noundef %181, i32 noundef 4, i32 noundef 0)
  %183 = load ptr, ptr %8, align 8
  %184 = load i32, ptr @hf_fti_max_number_encoding_symbols, align 4
  %185 = load ptr, ptr %6, align 8
  %186 = load i32, ptr %9, align 4
  %187 = add i32 %186, 16
  %188 = call ptr @proto_tree_add_item(ptr noundef %183, i32 noundef %184, ptr noundef %185, i32 noundef %187, i32 noundef 4, i32 noundef 0)
  br label %189

189:                                              ; preds = %85, %170, %151, %138, %113, %88
  call void @llvm.lifetime.end.p0(i64 8, ptr %14) #4
  call void @llvm.lifetime.end.p0(i64 1, ptr %13) #4
  call void @llvm.lifetime.end.p0(i64 8, ptr %12) #4
  call void @llvm.lifetime.end.p0(i64 8, ptr %11) #4
  ret void
}